Certificate:
    Data:
        Version: 3 (0x2)
        Serial Number: 1 (0x1)
        Signature Algorithm: sha256WithRSAEncryption
        Issuer: C=tw, ST=Some-State, O=ncnu, OU=ncnu
        Validity
            Not Before: Jul 25 12:59:51 2024 GMT
            Not After : Jul 25 12:59:51 2025 GMT
        Subject: C=tw, ST=Some-State, O=ncnu, OU=ncnu, CN=miller
        Subject Public Key Info:
            Public Key Algorithm: rsaEncryption
                RSA Public-Key: (2048 bit)
                Modulus:
                    00:dd:09:9d:fd:ff:c0:84:9b:8c:10:53:a8:85:36:
                    d6:a6:7d:88:f7:e8:59:f3:39:60:e2:69:e9:51:fc:
                    fc:b3:09:bc:ac:39:57:91:8f:23:e5:1d:a7:3d:cc:
                    a5:b1:62:f1:b1:4a:1d:43:16:e5:e0:9b:d9:c1:32:
                    46:f5:b0:25:2f:af:cc:79:00:d6:ff:c1:ec:09:38:
                    62:ab:ff:05:dc:d5:f3:a0:ec:ab:0c:9c:bc:78:d8:
                    7b:41:4c:36:c6:05:00:0e:fe:84:c9:14:27:c6:47:
                    d5:e8:76:2d:a9:1a:1c:a6:4c:26:bf:67:7b:d3:b7:
                    6a:0b:14:22:5f:2b:9b:a2:c5:c5:40:93:9d:29:b9:
                    96:09:57:52:7a:4e:cc:76:e6:db:5f:e2:0f:b3:f8:
                    33:c3:69:c7:bb:80:51:97:0d:46:e6:61:72:2f:c0:
                    b0:83:0b:70:6b:9d:70:5e:4e:cf:3b:9f:cf:7f:c5:
                    74:14:bb:a2:da:88:45:11:cb:88:ee:ee:6c:a0:e9:
                    6d:b0:97:3a:96:9b:32:e1:9e:43:7d:6e:6d:27:c2:
                    0d:d2:a7:5f:04:0f:73:d6:b1:53:21:4a:b1:70:12:
                    02:d1:b5:f7:39:1b:99:19:80:66:8c:7b:65:93:a7:
                    4a:ad:76:12:df:af:45:b0:a9:3d:fc:97:64:bf:74:
                    ca:7b
                Exponent: 65537 (0x10001)
        X509v3 extensions:
            X509v3 Basic Constraints: 
                CA:FALSE
            Netscape Comment: 
                OpenSSL Generated Certificate
            X509v3 Subject Key Identifier: 
                90:05:05:9C:73:72:5C:B6:76:12:CD:E6:D3:AC:4C:E1:C7:14:DC:F0
            X509v3 Authority Key Identifier: 
                keyid:4C:97:8D:5D:14:55:A4:05:EB:9E:97:D3:E4:12:EA:50:07:AC:91:A6

    Signature Algorithm: sha256WithRSAEncryption
         42:af:71:70:ba:bd:ab:9a:b8:ab:fc:f4:7a:57:76:28:0c:0d:
         ae:c8:d8:ad:c9:68:4a:eb:02:cd:4f:73:7d:ff:3d:ae:ac:ea:
         f4:38:6a:79:ee:f8:33:e1:19:92:c8:b4:6f:ee:c3:d7:ed:83:
         0d:5f:5d:f8:0a:78:f9:86:13:6f:bb:f9:4c:15:b7:6c:66:8e:
         2d:9f:4c:85:ef:ff:b9:55:ff:64:48:8a:9d:f9:01:f1:88:55:
         d2:a1:92:13:91:58:f1:24:61:52:7e:25:81:97:14:62:9e:27:
         16:c5:46:2c:63:c5:11:4b:5f:5e:97:dd:fd:45:e6:19:55:95:
         c7:9c:b0:34:52:92:6c:f1:11:4c:60:db:ed:ae:e4:14:b1:37:
         a6:e7:bc:4e:d7:b2:56:04:63:c1:a8:d2:ad:24:8a:74:8b:e1:
         25:97:c6:ea:ca:ad:d9:27:a9:85:8c:eb:c5:40:c5:d9:68:de:
         a4:b9:86:36:1b:7f:ef:63:0d:ae:68:82:5e:2a:af:dc:95:38:
         9f:48:f3:12:fa:0b:a2:01:2b:98:78:99:fb:a4:6d:37:32:98:
         d4:fd:f9:54:3d:3c:f5:91:bc:91:b9:49:b1:07:cd:df:46:a7:
         a5:2f:a7:83:30:49:37:93:42:dd:0d:5c:bb:be:d0:4f:68:67:
         31:01:fb:bf
-----BEGIN CERTIFICATE-----
MIIDhzCCAm+gAwIBAgIBATANBgkqhkiG9w0BAQsFADBAMQswCQYDVQQGEwJ0dzET
MBEGA1UECAwKU29tZS1TdGF0ZTENMAsGA1UECgwEbmNudTENMAsGA1UECwwEbmNu
dTAeFw0yNDA3MjUxMjU5NTFaFw0yNTA3MjUxMjU5NTFaMFExCzAJBgNVBAYTAnR3
MRMwEQYDVQQIDApTb21lLVN0YXRlMQ0wCwYDVQQKDARuY251MQ0wCwYDVQQLDARu
Y251MQ8wDQYDVQQDDAZtaWxsZXIwggEiMA0GCSqGSIb3DQEBAQUAA4IBDwAwggEK
AoIBAQDdCZ39/8CEm4wQU6iFNtamfYj36FnzOWDiaelR/PyzCbysOVeRjyPlHac9
zKWxYvGxSh1DFuXgm9nBMkb1sCUvr8x5ANb/wewJOGKr/wXc1fOg7KsMnLx42HtB
TDbGBQAO/oTJFCfGR9Xodi2pGhymTCa/Z3vTt2oLFCJfK5uixcVAk50puZYJV1J6
Tsx25ttf4g+z+DPDace7gFGXDUbmYXIvwLCDC3BrnXBeTs87n89/xXQUu6LaiEUR
y4ju7myg6W2wlzqWmzLhnkN9bm0nwg3Sp18ED3PWsVMhSrFwEgLRtfc5G5kZgGaM
e2WTp0qtdhLfr0WwqT38l2S/dMp7AgMBAAGjezB5MAkGA1UdEwQCMAAwLAYJYIZI
AYb4QgENBB8WHU9wZW5TU0wgR2VuZXJhdGVkIENlcnRpZmljYXRlMB0GA1UdDgQW
BBSQBQWcc3JctnYSzebTrEzhxxTc8DAfBgNVHSMEGDAWgBRMl41dFFWkBeuel9Pk
EupQB6yRpjANBgkqhkiG9w0BAQsFAAOCAQEAQq9xcLq9q5q4q/z0eld2KAwNrsjY
rcloSusCzU9zff89rqzq9Dhqee74M+EZksi0b+7D1+2DDV9d+Ap4+YYTb7v5TBW3
bGaOLZ9Mhe//uVX/ZEiKnfkB8YhV0qGSE5FY8SRhUn4lgZcUYp4nFsVGLGPFEUtf
Xpfd/UXmGVWVx5ywNFKSbPERTGDb7a7kFLE3pue8TteyVgRjwajSrSSKdIvhJZfG
6sqt2SephYzrxUDF2WjepLmGNht/72MNrmiCXiqv3JU4n0jzEvoLogErmHiZ+6Rt
NzKY1P35VD089ZG8kblJsQfN30anpS+ngzBJN5NC3Q1cu77QT2hnMQH7vw==
-----END CERTIFICATE-----
